target datalayout = "e-m:e-p270:32:32-p271:32:32-p272:64:64-i64:64-i128:128-f80:128-n8:16:32:64-S128"
target triple = "x86_64-pc-linux-gnu"

%struct.tlsextnextprotoctx_st = type { ptr, i64, i32 }

@c_quiet = internal global i32 0, align 4
@bio_c_out = internal global ptr null, align 8
@.str.565 = private unnamed_addr constant [33 x i8] c"Protocols advertised by server: \00", align 1
@.str.566 = private unnamed_addr constant [3 x i8] c", \00", align 1
@.str.567 = private unnamed_addr constant [2 x i8] c"\0A\00", align 1

; Function Attrs: nounwind uwtable
define internal i32 @next_proto_cb(ptr noundef %0, ptr noundef %1, ptr noundef %2, ptr noundef %3, i32 noundef %4, ptr noundef %5) #0 {
  %7 = alloca ptr, align 8
  %8 = alloca ptr, align 8
  %9 = alloca ptr, align 8
  %10 = alloca ptr, align 8
  %11 = alloca i32, align 4
  %12 = alloca ptr, align 8
  %13 = alloca ptr, align 8
  %14 = alloca i32, align 4
  store ptr %0, ptr %7, align 8, !tbaa !13
  store ptr %1, ptr %8, align 8, !tbaa !8
  store ptr %2, ptr %9, align 8, !tbaa !29
  store ptr %3, ptr %10, align 8, !tbaa !29
  store i32 %4, ptr %11, align 4, !tbaa !4
  store ptr %5, ptr %12, align 8, !tbaa !44
  call void @llvm.lifetime.start.p0(i64 8, ptr %13) #10
  %15 = load ptr, ptr %12, align 8, !tbaa !44
  store ptr %15, ptr %13, align 8, !tbaa !114
  %16 = load i32, ptr @c_quiet, align 4, !tbaa !4
  %17 = icmp ne i32 %16, 0
  br i1 %17, label %57, label %18

18:                                               ; preds = %6
  call void @llvm.lifetime.start.p0(i64 4, ptr %14) #10
  %19 = load ptr, ptr @bio_c_out, align 8, !tbaa !40
  %20 = call i32 (ptr, ptr, ...) @BIO_printf(ptr noundef %19, ptr noundef @.str.565)
  store i32 0, ptr %14, align 4, !tbaa !4
  br label %21

21:                                               ; preds = %31, %18
  %22 = load i32, ptr %14, align 4, !tbaa !4
  %23 = load i32, ptr %11, align 4, !tbaa !4
  %24 = icmp ult i32 %22, %23
  br i1 %24, label %25, label %54

25:                                               ; preds = %21
  %26 = load i32, ptr %14, align 4, !tbaa !4
  %27 = icmp ne i32 %26, 0
  br i1 %27, label %28, label %31

28:                                               ; preds = %25
  %29 = load ptr, ptr @bio_c_out, align 8, !tbaa !40
  %30 = call i32 @BIO_write(ptr noundef %29, ptr noundef @.str.566, i32 noundef 2)
  br label %31

31:                                               ; preds = %28, %25
  %32 = load ptr, ptr @bio_c_out, align 8, !tbaa !40
  %33 = load ptr, ptr %10, align 8, !tbaa !29
  %34 = load i32, ptr %14, align 4, !tbaa !4
  %35 = add i32 %34, 1
  %36 = zext i32 %35 to i64
  %37 = getelementptr inbounds nuw i8, ptr %33, i64 %36
  %38 = load ptr, ptr %10, align 8, !tbaa !29
  %39 = load i32, ptr %14, align 4, !tbaa !4
  %40 = zext i32 %39 to i64
  %41 = getelementptr inbounds nuw i8, ptr %38, i64 %40
  %42 = load i8, ptr %41, align 1, !tbaa !39
  %43 = zext i8 %42 to i32
  %44 = call i32 @BIO_write(ptr noundef %32, ptr noundef %37, i32 noundef %43)
  %45 = load ptr, ptr %10, align 8, !tbaa !29
  %46 = load i32, ptr %14, align 4, !tbaa !4
  %47 = zext i32 %46 to i64
  %48 = getelementptr inbounds nuw i8, ptr %45, i64 %47
  %49 = load i8, ptr %48, align 1, !tbaa !39
  %50 = zext i8 %49 to i32
  %51 = add nsw i32 %50, 1
  %52 = load i32, ptr %14, align 4, !tbaa !4
  %53 = add i32 %52, %51
  store i32 %53, ptr %14, align 4, !tbaa !4
  br label %21, !llvm.loop !116

54:                                               ; preds = %21
  %55 = load ptr, ptr @bio_c_out, align 8, !tbaa !40
  %56 = call i32 @BIO_write(ptr noundef %55, ptr noundef @.str.567, i32 noundef 1)
  call void @llvm.lifetime.end.p0(i64 4, ptr %14) #10
  br label %57

57:                                               ; preds = %54, %6
  %58 = load ptr, ptr %8, align 8, !tbaa !8
  %59 = load ptr, ptr %9, align 8, !tbaa !29
  %60 = load ptr, ptr %10, align 8, !tbaa !29
  %61 = load i32, ptr %11, align 4, !tbaa !4
  %62 = load ptr, ptr %13, align 8, !tbaa !114
  %63 = getelementptr inbounds nuw %struct.tlsextnextprotoctx_st, ptr %62, i32 0, i32 0
  %64 = load ptr, ptr %63, align 8, !tbaa !65
  %65 = load ptr, ptr %13, align 8, !tbaa !114
  %66 = getelementptr inbounds nuw %struct.tlsextnextprotoctx_st, ptr %65, i32 0, i32 1
  %67 = load i64, ptr %66, align 8, !tbaa !117
  %68 = trunc i64 %67 to i32
  %69 = call i32 @SSL_select_next_proto(ptr noundef %58, ptr noundef %59, ptr noundef %60, i32 noundef %61, ptr noundef %64, i32 noundef %68)
  %70 = load ptr, ptr %13, align 8, !tbaa !114
  %71 = getelementptr inbounds nuw %struct.tlsextnextprotoctx_st, ptr %70, i32 0, i32 2
  store i32 %69, ptr %71, align 8, !tbaa !63
  call void @llvm.lifetime.end.p0(i64 8, ptr %13) #10
  ret i32 0
}