; Function Attrs: nounwind uwtable
define internal noundef i32 @next_proto_cb(ptr readnone captures(none) %0, ptr noundef %1, ptr noundef %2, ptr noundef %3, i32 noundef %4, ptr noundef captures(none) %5) #0 {
  %.b = load i1, ptr @c_quiet, align 4
  br i1 %.b, label %29, label %7

7:                                                ; preds = %6
  %8 = load ptr, ptr @bio_c_out, align 8, !tbaa !19
  %9 = tail call i32 (ptr, ptr, ...) @BIO_printf(ptr noundef %8, ptr noundef nonnull @.str.565) #15
  %.not18 = icmp eq i32 %4, 0
  br i1 %.not18, label %._crit_edge, label %.lr.ph

.lr.ph:                                           ; preds = %7, %13
  %.017 = phi i32 [ %25, %13 ], [ 0, %7 ]
  %.not = icmp eq i32 %.017, 0
  br i1 %.not, label %13, label %10

10:                                               ; preds = %.lr.ph
  %11 = load ptr, ptr @bio_c_out, align 8, !tbaa !19
  %12 = tail call i32 @BIO_write(ptr noundef %11, ptr noundef nonnull @.str.566, i32 noundef 2) #15
  br label %13

13:                                               ; preds = %10, %.lr.ph
  %14 = load ptr, ptr @bio_c_out, align 8, !tbaa !19
  %15 = add nuw i32 %.017, 1
  %16 = zext i32 %15 to i64
  %17 = getelementptr inbounds nuw i8, ptr %3, i64 %16
  %18 = zext i32 %.017 to i64
  %19 = getelementptr inbounds nuw i8, ptr %3, i64 %18
  %20 = load i8, ptr %19, align 1, !tbaa !25
  %21 = zext i8 %20 to i32
  %22 = tail call i32 @BIO_write(ptr noundef %14, ptr noundef nonnull %17, i32 noundef %21) #15
  %23 = load i8, ptr %19, align 1, !tbaa !25
  %24 = zext i8 %23 to i32
  %25 = add i32 %15, %24
  %26 = icmp ult i32 %25, %4
  br i1 %26, label %.lr.ph, label %._crit_edge, !llvm.loop !75

._crit_edge:                                      ; preds = %13, %7
  %27 = load ptr, ptr @bio_c_out, align 8, !tbaa !19
  %28 = tail call i32 @BIO_write(ptr noundef %27, ptr noundef nonnull @.str.567, i32 noundef 1) #15
  br label %29

29:                                               ; preds = %._crit_edge, %6
  %30 = load ptr, ptr %5, align 8, !tbaa !40
  %31 = getelementptr inbounds nuw i8, ptr %5, i64 8
  %32 = load i64, ptr %31, align 8, !tbaa !76
  %33 = trunc i64 %32 to i32
  %34 = tail call i32 @SSL_select_next_proto(ptr noundef %1, ptr noundef %2, ptr noundef %3, i32 noundef %4, ptr noundef %30, i32 noundef %33) #15
  %35 = getelementptr inbounds nuw i8, ptr %5, i64 16
  store i32 %34, ptr %35, align 8, !tbaa !38
  ret i32 0
}